; Function Attrs: mustprogress nofree norecurse nosync nounwind willreturn memory(read, inaccessiblemem: none) uwtable
define internal ptr @"_ZNSt17_Function_handlerIF6symboliEZ9read_dratPKcE3$_1E9_M_invokeERKSt9_Any_dataOi"(ptr noundef nonnull readonly align 8 captures(none) dereferenceable(16) %0, ptr noundef nonnull readonly align 4 captures(none) dereferenceable(4) %1) #19 align 2 {
  %.val2 = load i32, ptr %1, align 4, !tbaa !45
  %3 = icmp sgt i32 %.val2, -1
  br i1 %3, label %4, label %"_ZSt10__invoke_rI6symbolRZ9read_dratPKcE3$_1JiEENSt9enable_ifIX16is_invocable_r_vIT_T0_DpT1_EES6_E4typeEOS7_DpOS8_.exit"

4:                                                ; preds = %2
  %.val = load ptr, ptr %0, align 8, !tbaa !119
  %5 = getelementptr inbounds nuw i8, ptr %.val, i64 608
  %6 = load ptr, ptr %5, align 8, !tbaa !121
  %7 = icmp eq ptr %6, null
  br i1 %7, label %"_ZSt10__invoke_rI6symbolRZ9read_dratPKcE3$_1JiEENSt9enable_ifIX16is_invocable_r_vIT_T0_DpT1_EES6_E4typeEOS7_DpOS8_.exit", label %_ZNK6vectorI6symbolLb0EjE4sizeEv.exit.i.i.i.i.i

_ZNK6vectorI6symbolLb0EjE4sizeEv.exit.i.i.i.i.i:  ; preds = %4
  %8 = getelementptr inbounds i8, ptr %6, i64 -4
  %9 = load i32, ptr %8, align 4, !tbaa !45
  %10 = icmp slt i32 %.val2, %9
  br i1 %10, label %11, label %"_ZSt10__invoke_rI6symbolRZ9read_dratPKcE3$_1JiEENSt9enable_ifIX16is_invocable_r_vIT_T0_DpT1_EES6_E4typeEOS7_DpOS8_.exit"

11:                                               ; preds = %_ZNK6vectorI6symbolLb0EjE4sizeEv.exit.i.i.i.i.i
  %12 = zext nneg i32 %.val2 to i64
  %13 = getelementptr inbounds nuw %class.symbol, ptr %6, i64 %12
  br label %"_ZSt10__invoke_rI6symbolRZ9read_dratPKcE3$_1JiEENSt9enable_ifIX16is_invocable_r_vIT_T0_DpT1_EES6_E4typeEOS7_DpOS8_.exit"

"_ZSt10__invoke_rI6symbolRZ9read_dratPKcE3$_1JiEENSt9enable_ifIX16is_invocable_r_vIT_T0_DpT1_EES6_E4typeEOS7_DpOS8_.exit": ; preds = %2, %4, %_ZNK6vectorI6symbolLb0EjE4sizeEv.exit.i.i.i.i.i, %11
  %14 = phi ptr [ %13, %11 ], [ @_ZN6symbol4nullE, %_ZNK6vectorI6symbolLb0EjE4sizeEv.exit.i.i.i.i.i ], [ @_ZN6symbol4nullE, %2 ], [ @_ZN6symbol4nullE, %4 ]
  %.sroa.0.0.copyload.i.i.i = load ptr, ptr %14, align 8, !tbaa !116
  ret ptr %.sroa.0.0.copyload.i.i.i
}